target datalayout = "e-m:e-p270:32:32-p271:32:32-p272:64:64-i64:64-i128:128-f80:128-n8:16:32:64-S128"
target triple = "x86_64-pc-linux-gnu"

%struct.WalWriteMethod = type { ptr, i32, i32, i8, ptr, i32 }
%struct.DirectoryMethodFile = type { %struct.Walfile, i32, ptr, ptr, ptr }
%struct.Walfile = type { ptr, i64, ptr }

; Function Attrs: nounwind uwtable
define internal i32 @dir_sync(ptr noundef %0) #0 {
  %2 = alloca i32, align 4
  %3 = alloca ptr, align 8
  %4 = alloca i32, align 4
  %5 = alloca i32, align 4
  store ptr %0, ptr %3, align 8
  call void @llvm.lifetime.start.p0(i64 4, ptr %4) #9
  %6 = load ptr, ptr %3, align 8
  %7 = getelementptr inbounds nuw %struct.Walfile, ptr %6, i32 0, i32 0
  %8 = load ptr, ptr %7, align 8
  %9 = getelementptr inbounds nuw %struct.WalWriteMethod, ptr %8, i32 0, i32 4
  store ptr null, ptr %9, align 8
  %10 = load ptr, ptr %3, align 8
  %11 = getelementptr inbounds nuw %struct.Walfile, ptr %10, i32 0, i32 0
  %12 = load ptr, ptr %11, align 8
  %13 = getelementptr inbounds nuw %struct.WalWriteMethod, ptr %12, i32 0, i32 5
  store i32 0, ptr %13, align 8
  %14 = load ptr, ptr %3, align 8
  %15 = getelementptr inbounds nuw %struct.Walfile, ptr %14, i32 0, i32 0
  %16 = load ptr, ptr %15, align 8
  %17 = getelementptr inbounds nuw %struct.WalWriteMethod, ptr %16, i32 0, i32 3
  %18 = load i8, ptr %17, align 8, !range !4, !noundef !5
  %19 = trunc i8 %18 to i1
  br i1 %19, label %21, label %20

20:                                               ; preds = %1
  store i32 0, ptr %2, align 4
  store i32 1, ptr %5, align 4
  br label %58

21:                                               ; preds = %1
  %22 = load ptr, ptr %3, align 8
  %23 = getelementptr inbounds nuw %struct.Walfile, ptr %22, i32 0, i32 0
  %24 = load ptr, ptr %23, align 8
  %25 = getelementptr inbounds nuw %struct.WalWriteMethod, ptr %24, i32 0, i32 1
  %26 = load i32, ptr %25, align 8
  %27 = icmp eq i32 %26, 1
  br i1 %27, label %28, label %42

28:                                               ; preds = %21
  %29 = load ptr, ptr %3, align 8
  %30 = getelementptr inbounds nuw %struct.DirectoryMethodFile, ptr %29, i32 0, i32 4
  %31 = load ptr, ptr %30, align 8
  %32 = call i32 @gzflush(ptr noundef %31, i32 noundef 2)
  %33 = icmp ne i32 %32, 0
  br i1 %33, label %34, label %41

34:                                               ; preds = %28
  %35 = call ptr @__errno_location() #11
  %36 = load i32, ptr %35, align 4
  %37 = load ptr, ptr %3, align 8
  %38 = getelementptr inbounds nuw %struct.Walfile, ptr %37, i32 0, i32 0
  %39 = load ptr, ptr %38, align 8
  %40 = getelementptr inbounds nuw %struct.WalWriteMethod, ptr %39, i32 0, i32 5
  store i32 %36, ptr %40, align 8
  store i32 -1, ptr %2, align 4
  store i32 1, ptr %5, align 4
  br label %58

41:                                               ; preds = %28
  br label %42

42:                                               ; preds = %41, %21
  %43 = load ptr, ptr %3, align 8
  %44 = getelementptr inbounds nuw %struct.DirectoryMethodFile, ptr %43, i32 0, i32 1
  %45 = load i32, ptr %44, align 8
  %46 = call i32 @fsync(i32 noundef %45)
  store i32 %46, ptr %4, align 4
  %47 = load i32, ptr %4, align 4
  %48 = icmp slt i32 %47, 0
  br i1 %48, label %49, label %56

49:                                               ; preds = %42
  %50 = call ptr @__errno_location() #11
  %51 = load i32, ptr %50, align 4
  %52 = load ptr, ptr %3, align 8
  %53 = getelementptr inbounds nuw %struct.Walfile, ptr %52, i32 0, i32 0
  %54 = load ptr, ptr %53, align 8
  %55 = getelementptr inbounds nuw %struct.WalWriteMethod, ptr %54, i32 0, i32 5
  store i32 %51, ptr %55, align 8
  br label %56

56:                                               ; preds = %49, %42
  %57 = load i32, ptr %4, align 4
  store i32 %57, ptr %2, align 4
  store i32 1, ptr %5, align 4
  br label %58

58:                                               ; preds = %56, %34, %20
  call void @llvm.lifetime.end.p0(i64 4, ptr %4) #9
  %59 = load i32, ptr %2, align 4
  ret i32 %59
}