; Function Attrs: nounwind uwtable
define internal i32 @dir_sync(ptr noundef readonly captures(none) %0) #0 {
  %2 = load ptr, ptr %0, align 8
  %3 = getelementptr inbounds nuw i8, ptr %2, i64 24
  store ptr null, ptr %3, align 8
  %4 = load ptr, ptr %0, align 8
  %5 = getelementptr inbounds nuw i8, ptr %4, i64 32
  store i32 0, ptr %5, align 8
  %6 = load ptr, ptr %0, align 8
  %7 = getelementptr inbounds nuw i8, ptr %6, i64 16
  %8 = load i8, ptr %7, align 8, !range !4, !noundef !5
  %9 = trunc nuw i8 %8 to i1
  br i1 %9, label %10, label %27

10:                                               ; preds = %1
  %11 = getelementptr inbounds nuw i8, ptr %6, i64 8
  %12 = load i32, ptr %11, align 8
  %13 = icmp eq i32 %12, 1
  br i1 %13, label %14, label %18

14:                                               ; preds = %10
  %15 = getelementptr inbounds nuw i8, ptr %0, i64 48
  %16 = load ptr, ptr %15, align 8
  %17 = tail call i32 @gzflush(ptr noundef %16, i32 noundef 2) #12
  %.not = icmp eq i32 %17, 0
  br i1 %.not, label %18, label %.sink.split

18:                                               ; preds = %14, %10
  %19 = getelementptr inbounds nuw i8, ptr %0, i64 24
  %20 = load i32, ptr %19, align 8
  %21 = tail call i32 @fsync(i32 noundef %20) #12
  %22 = icmp slt i32 %21, 0
  br i1 %22, label %.sink.split, label %27

.sink.split:                                      ; preds = %18, %14
  %.0.ph = phi i32 [ -1, %14 ], [ %21, %18 ]
  %23 = tail call ptr @__errno_location() #14
  %24 = load i32, ptr %23, align 4
  %25 = load ptr, ptr %0, align 8
  %26 = getelementptr inbounds nuw i8, ptr %25, i64 32
  store i32 %24, ptr %26, align 8
  br label %27

27:                                               ; preds = %.sink.split, %18, %1
  %.0 = phi i32 [ 0, %1 ], [ %21, %18 ], [ %.0.ph, %.sink.split ]
  ret i32 %.0
}